target datalayout = "e-m:e-p270:32:32-p271:32:32-p272:64:64-i64:64-i128:128-f80:128-n8:16:32:64-S128"
target triple = "x86_64-pc-linux-gnu"

%struct.t_ppwstr = type { float, float, float }
%struct.t_bb = type { float, float, float, float, float, float, float, float, i8, i32, i32, i32, i32, i32, i32, i32, i32, i32, i32, [32 x i8] }

; Function Attrs: mustprogress nounwind uwtable
define linkonce_odr noundef float @_ZN3gmx6squareIfEET_S1_(float noundef %0) #2 comdat {
  %2 = alloca float, align 4
  store float %0, ptr %2, align 4, !tbaa !11
  %3 = load float, ptr %2, align 4, !tbaa !11
  %4 = load float, ptr %2, align 4, !tbaa !11
  %5 = fmul float %3, %4
  ret float %5
}

; Function Attrs: mustprogress nounwind uwtable
define internal noundef i32 @_Z5asizeIKZ11ellipticityiP4t_bbE8t_ppwstrLi12EEiRAT0__T_(ptr noundef nonnull align 4 dereferenceable(144) %0) #2 {
  %2 = alloca ptr, align 8
  store ptr %0, ptr %2, align 8, !tbaa !25
  ret i32 12
}

; Function Attrs: mustprogress uwtable
define noundef float @_Z11ellipticityiP4t_bb(i32 noundef %0, ptr noundef %1) #0 {
  %3 = alloca i32, align 4
  %4 = alloca ptr, align 8
  %5 = alloca i32, align 4
  %6 = alloca i32, align 4
  %7 = alloca float, align 4
  %8 = alloca float, align 4
  %9 = alloca float, align 4
  %10 = alloca float, align 4
  store i32 %0, ptr %3, align 4, !tbaa !4
  store ptr %1, ptr %4, align 8, !tbaa !8
  call void @llvm.lifetime.start.p0(i64 4, ptr %5) #14
  call void @llvm.lifetime.start.p0(i64 4, ptr %6) #14
  call void @llvm.lifetime.start.p0(i64 4, ptr %7) #14
  call void @llvm.lifetime.start.p0(i64 4, ptr %8) #14
  call void @llvm.lifetime.start.p0(i64 4, ptr %9) #14
  call void @llvm.lifetime.start.p0(i64 4, ptr %10) #14
  store float 0.000000e+00, ptr %7, align 4, !tbaa !11
  store i32 0, ptr %5, align 4, !tbaa !4
  br label %11

11:                                               ; preds = %72, %2
  %12 = load i32, ptr %5, align 4, !tbaa !4
  %13 = load i32, ptr %3, align 4, !tbaa !4
  %14 = icmp slt i32 %12, %13
  br i1 %14, label %15, label %75

15:                                               ; preds = %11
  %16 = load ptr, ptr %4, align 8, !tbaa !8
  %17 = load i32, ptr %5, align 4, !tbaa !4
  %18 = sext i32 %17 to i64
  %19 = getelementptr inbounds %struct.t_bb, ptr %16, i64 %18
  %20 = getelementptr inbounds nuw %struct.t_bb, ptr %19, i32 0, i32 0
  %21 = load float, ptr %20, align 4, !tbaa !13
  store float %21, ptr %9, align 4, !tbaa !11
  %22 = load ptr, ptr %4, align 8, !tbaa !8
  %23 = load i32, ptr %5, align 4, !tbaa !4
  %24 = sext i32 %23 to i64
  %25 = getelementptr inbounds %struct.t_bb, ptr %22, i64 %24
  %26 = getelementptr inbounds nuw %struct.t_bb, ptr %25, i32 0, i32 1
  %27 = load float, ptr %26, align 4, !tbaa !16
  store float %27, ptr %10, align 4, !tbaa !11
  store i32 0, ptr %6, align 4, !tbaa !4
  br label %28

28:                                               ; preds = %68, %15
  %29 = load i32, ptr %6, align 4, !tbaa !4
  %30 = call noundef i32 @_Z5asizeIKZ11ellipticityiP4t_bbE8t_ppwstrLi12EEiRAT0__T_(ptr noundef nonnull align 4 dereferenceable(144) @_ZZ11ellipticityiP4t_bbE3ppw)
  %31 = icmp slt i32 %29, %30
  br i1 %31, label %32, label %71

32:                                               ; preds = %28
  %33 = load float, ptr %9, align 4, !tbaa !11
  %34 = load i32, ptr %6, align 4, !tbaa !4
  %35 = sext i32 %34 to i64
  %36 = getelementptr inbounds [12 x %struct.t_ppwstr], ptr @_ZZ11ellipticityiP4t_bbE3ppw, i64 0, i64 %35
  %37 = getelementptr inbounds nuw %struct.t_ppwstr, ptr %36, i32 0, i32 0
  %38 = load float, ptr %37, align 4, !tbaa !17
  %39 = fsub float %33, %38
  %40 = call noundef float @_ZN3gmx6squareIfEET_S1_(float noundef %39)
  %41 = load float, ptr %10, align 4, !tbaa !11
  %42 = load i32, ptr %6, align 4, !tbaa !4
  %43 = sext i32 %42 to i64
  %44 = getelementptr inbounds [12 x %struct.t_ppwstr], ptr @_ZZ11ellipticityiP4t_bbE3ppw, i64 0, i64 %43
  %45 = getelementptr inbounds nuw %struct.t_ppwstr, ptr %44, i32 0, i32 1
  %46 = load float, ptr %45, align 4, !tbaa !19
  %47 = fsub float %41, %46
  %48 = call noundef float @_ZN3gmx6squareIfEET_S1_(float noundef %47)
  %49 = fadd float %40, %48
  store float %49, ptr %8, align 4, !tbaa !11
  %50 = load float, ptr %8, align 4, !tbaa !11
  %51 = fcmp olt float %50, 6.400000e+01
  br i1 %51, label %52, label %67

52:                                               ; preds = %32
  %53 = load ptr, ptr %4, align 8, !tbaa !8
  %54 = load i32, ptr %5, align 4, !tbaa !4
  %55 = sext i32 %54 to i64
  %56 = getelementptr inbounds %struct.t_bb, ptr %53, i64 %55
  %57 = getelementptr inbounds nuw %struct.t_bb, ptr %56, i32 0, i32 9
  %58 = load i32, ptr %57, align 4, !tbaa !20
  %59 = add nsw i32 %58, 1
  store i32 %59, ptr %57, align 4, !tbaa !20
  %60 = load i32, ptr %6, align 4, !tbaa !4
  %61 = sext i32 %60 to i64
  %62 = getelementptr inbounds [12 x %struct.t_ppwstr], ptr @_ZZ11ellipticityiP4t_bbE3ppw, i64 0, i64 %61
  %63 = getelementptr inbounds nuw %struct.t_ppwstr, ptr %62, i32 0, i32 2
  %64 = load float, ptr %63, align 4, !tbaa !21
  %65 = load float, ptr %7, align 4, !tbaa !11
  %66 = fadd float %65, %64
  store float %66, ptr %7, align 4, !tbaa !11
  br label %71

67:                                               ; preds = %32
  br label %68

68:                                               ; preds = %67
  %69 = load i32, ptr %6, align 4, !tbaa !4
  %70 = add nsw i32 %69, 1
  store i32 %70, ptr %6, align 4, !tbaa !4
  br label %28, !llvm.loop !22

71:                                               ; preds = %52, %28
  br label %72

72:                                               ; preds = %71
  %73 = load i32, ptr %5, align 4, !tbaa !4
  %74 = add nsw i32 %73, 1
  store i32 %74, ptr %5, align 4, !tbaa !4
  br label %11, !llvm.loop !24

75:                                               ; preds = %11
  %76 = load float, ptr %7, align 4, !tbaa !11
  call void @llvm.lifetime.end.p0(i64 4, ptr %10) #14
  call void @llvm.lifetime.end.p0(i64 4, ptr %9) #14
  call void @llvm.lifetime.end.p0(i64 4, ptr %8) #14
  call void @llvm.lifetime.end.p0(i64 4, ptr %7) #14
  call void @llvm.lifetime.end.p0(i64 4, ptr %6) #14
  call void @llvm.lifetime.end.p0(i64 4, ptr %5) #14
  ret float %76
}