; Function Attrs: mustprogress nofree norecurse nosync nounwind memory(argmem: readwrite) uwtable
define noundef float @_Z11ellipticityiP4t_bb(i32 noundef %0, ptr noundef captures(none) %1) local_unnamed_addr #0 {
  %3 = icmp sgt i32 %0, 0
  br i1 %3, label %.lr.ph.preheader, label %._crit_edge

.lr.ph.preheader:                                 ; preds = %2
  %wide.trip.count = zext nneg i32 %0 to i64
  br label %.lr.ph

.lr.ph:                                           ; preds = %.lr.ph.preheader, %.loopexit
  %indvars.iv25 = phi i64 [ 0, %.lr.ph.preheader ], [ %indvars.iv.next26, %.loopexit ]
  %.01921 = phi float [ 0.000000e+00, %.lr.ph.preheader ], [ %.1, %.loopexit ]
  %4 = getelementptr inbounds nuw %struct.t_bb, ptr %1, i64 %indvars.iv25
  %5 = load float, ptr %4, align 4, !tbaa !4
  %6 = getelementptr inbounds nuw i8, ptr %4, i64 4
  %7 = load float, ptr %6, align 4, !tbaa !11
  br label %9

8:                                                ; preds = %9
  %indvars.iv.next = add nuw nsw i64 %indvars.iv, 1
  %exitcond.not = icmp eq i64 %indvars.iv.next, 12
  br i1 %exitcond.not, label %.loopexit, label %9, !llvm.loop !12

9:                                                ; preds = %.lr.ph, %8
  %indvars.iv = phi i64 [ 0, %.lr.ph ], [ %indvars.iv.next, %8 ]
  %10 = getelementptr inbounds nuw [12 x %struct.t_ppwstr], ptr @_ZZ11ellipticityiP4t_bbE3ppw, i64 0, i64 %indvars.iv
  %11 = load float, ptr %10, align 4, !tbaa !14
  %12 = fsub float %5, %11
  %13 = fmul float %12, %12
  %14 = getelementptr inbounds nuw i8, ptr %10, i64 4
  %15 = load float, ptr %14, align 4, !tbaa !16
  %16 = fsub float %7, %15
  %17 = fmul float %16, %16
  %18 = fadd float %13, %17
  %19 = fcmp olt float %18, 6.400000e+01
  br i1 %19, label %20, label %8

20:                                               ; preds = %9
  %21 = getelementptr inbounds nuw i8, ptr %4, i64 36
  %22 = load i32, ptr %21, align 4, !tbaa !17
  %23 = add nsw i32 %22, 1
  store i32 %23, ptr %21, align 4, !tbaa !17
  %24 = getelementptr inbounds nuw i8, ptr %10, i64 8
  %25 = load float, ptr %24, align 4, !tbaa !18
  %26 = fadd float %.01921, %25
  br label %.loopexit

.loopexit:                                        ; preds = %8, %20
  %.1 = phi float [ %26, %20 ], [ %.01921, %8 ]
  %indvars.iv.next26 = add nuw nsw i64 %indvars.iv25, 1
  %exitcond28.not = icmp eq i64 %indvars.iv.next26, %wide.trip.count
  br i1 %exitcond28.not, label %._crit_edge, label %.lr.ph, !llvm.loop !19

._crit_edge:                                      ; preds = %.loopexit, %2
  %.019.lcssa = phi float [ 0.000000e+00, %2 ], [ %.1, %.loopexit ]
  ret float %.019.lcssa
}